; Function Attrs: mustprogress nounwind uwtable
define hidden void @_ZN16ModuleEntryTable22patch_javabase_entriesEP10JavaThread6Handle(ptr nocapture noundef readnone %0, ptr %1) local_unnamed_addr #0 align 2 {
  %3 = icmp eq ptr %1, null
  br i1 %3, label %4, label %_ZNK6HandleclEv.exit15

4:                                                ; preds = %2
  %5 = load ptr, ptr @g_assert_poison, align 8
  store i8 88, ptr %5, align 1
  tail call void (i32, ptr, i32, ptr, ...) @_Z12report_fatal11VMErrorTypePKciS1_z(i32 noundef -536870912, ptr noundef nonnull @.str.9, i32 noundef 676, ptr noundef nonnull @.str.15) #18
  unreachable

_ZNK6HandleclEv.exit15:                           ; preds = %2
  %6 = tail call noundef ptr @_ZN8Universe10int_mirrorEv() #16
  %7 = load ptr, ptr %1, align 8
  tail call void @_ZN15java_lang_Class10set_moduleEP7oopDescS1_(ptr noundef %6, ptr noundef %7) #16
  %8 = tail call noundef ptr @_ZN8Universe12float_mirrorEv() #16
  %9 = load ptr, ptr %1, align 8
  tail call void @_ZN15java_lang_Class10set_moduleEP7oopDescS1_(ptr noundef %8, ptr noundef %9) #16
  %10 = tail call noundef ptr @_ZN8Universe13double_mirrorEv() #16
  %11 = load ptr, ptr %1, align 8
  tail call void @_ZN15java_lang_Class10set_moduleEP7oopDescS1_(ptr noundef %10, ptr noundef %11) #16
  %12 = tail call noundef ptr @_ZN8Universe11byte_mirrorEv() #16
  %13 = load ptr, ptr %1, align 8
  tail call void @_ZN15java_lang_Class10set_moduleEP7oopDescS1_(ptr noundef %12, ptr noundef %13) #16
  %14 = tail call noundef ptr @_ZN8Universe11bool_mirrorEv() #16
  %15 = load ptr, ptr %1, align 8
  tail call void @_ZN15java_lang_Class10set_moduleEP7oopDescS1_(ptr noundef %14, ptr noundef %15) #16
  %16 = tail call noundef ptr @_ZN8Universe11char_mirrorEv() #16
  %17 = load ptr, ptr %1, align 8
  tail call void @_ZN15java_lang_Class10set_moduleEP7oopDescS1_(ptr noundef %16, ptr noundef %17) #16
  %18 = tail call noundef ptr @_ZN8Universe11long_mirrorEv() #16
  %19 = load ptr, ptr %1, align 8
  tail call void @_ZN15java_lang_Class10set_moduleEP7oopDescS1_(ptr noundef %18, ptr noundef %19) #16
  %20 = tail call noundef ptr @_ZN8Universe12short_mirrorEv() #16
  %21 = load ptr, ptr %1, align 8
  tail call void @_ZN15java_lang_Class10set_moduleEP7oopDescS1_(ptr noundef %20, ptr noundef %21) #16
  %22 = tail call noundef ptr @_ZN8Universe11void_mirrorEv() #16
  %23 = load ptr, ptr %1, align 8
  tail call void @_ZN15java_lang_Class10set_moduleEP7oopDescS1_(ptr noundef %22, ptr noundef %23) #16
  %24 = load ptr, ptr @_ZN15java_lang_Class24_fixup_module_field_listE, align 8
  %25 = load i32, ptr %24, align 4
  %26 = icmp sgt i32 %25, 0
  br i1 %26, label %.lr.ph, label %._crit_edge.thread

.lr.ph:                                           ; preds = %_ZNK6HandleclEv.exit15
  %27 = getelementptr inbounds i8, ptr %24, i64 8
  %wide.trip.count = zext nneg i32 %25 to i64
  br label %28

28:                                               ; preds = %.lr.ph, %28
  %indvars.iv = phi i64 [ 0, %.lr.ph ], [ %indvars.iv.next, %28 ]
  %29 = load ptr, ptr %27, align 8
  %30 = getelementptr inbounds ptr, ptr %29, i64 %indvars.iv
  %31 = load ptr, ptr %30, align 8
  tail call void @_ZN15java_lang_Class18fixup_module_fieldEP5Klass6Handle(ptr noundef %31, ptr nonnull %1) #16
  %32 = getelementptr inbounds i8, ptr %31, i64 152
  %33 = load ptr, ptr %32, align 8
  tail call void @_ZN15ClassLoaderData14dec_keep_aliveEv(ptr noundef nonnull align 8 dereferenceable(160) %33) #16
  %indvars.iv.next = add nuw nsw i64 %indvars.iv, 1
  %exitcond.not = icmp eq i64 %indvars.iv.next, %wide.trip.count
  br i1 %exitcond.not, label %._crit_edge, label %28, !llvm.loop !31

._crit_edge:                                      ; preds = %28
  %.pre = load ptr, ptr @_ZN15java_lang_Class24_fixup_module_field_listE, align 8
  %34 = icmp eq ptr %.pre, null
  br i1 %34, label %40, label %._crit_edge.thread

._crit_edge.thread:                               ; preds = %_ZNK6HandleclEv.exit15, %._crit_edge
  %35 = phi ptr [ %.pre, %._crit_edge ], [ %24, %_ZNK6HandleclEv.exit15 ]
  %36 = getelementptr inbounds i8, ptr %35, i64 16
  %37 = load i64, ptr %36, align 8
  %38 = and i64 %37, 1
  %.not.i = icmp eq i64 %38, 0
  br i1 %.not.i, label %_ZN13GrowableArrayIP5KlassED2Ev.exit, label %39

39:                                               ; preds = %._crit_edge.thread
  store i32 0, ptr %35, align 4
  tail call void @_ZN26GrowableArrayWithAllocatorIP5Klass13GrowableArrayIS1_EE13shrink_to_fitEv(ptr noundef nonnull align 8 dereferenceable(16) %35)
  br label %_ZN13GrowableArrayIP5KlassED2Ev.exit

_ZN13GrowableArrayIP5KlassED2Ev.exit:             ; preds = %._crit_edge.thread, %39
  tail call void @_ZN6AnyObjdlEPv(ptr noundef nonnull %35) #16
  br label %40

40:                                               ; preds = %_ZN13GrowableArrayIP5KlassED2Ev.exit, %._crit_edge
  store ptr null, ptr @_ZN15java_lang_Class24_fixup_module_field_listE, align 8
  ret void
}